target datalayout = "e-m:e-p270:32:32-p271:32:32-p272:64:64-i64:64-i128:128-f80:128-n8:16:32:64-S128"
target triple = "x86_64-pc-linux-gnu"

%struct._DlsMat = type { i32, i64, i64, i64, i64, i64, i64, ptr, i64, ptr }

; Function Attrs: nounwind uwtable
define ptr @SUNDlsMat_NewBandMat(i64 noundef %0, i64 noundef %1, i64 noundef %2, i64 noundef %3) #0 {
  %5 = alloca ptr, align 8
  %6 = alloca i64, align 8
  %7 = alloca i64, align 8
  %8 = alloca i64, align 8
  %9 = alloca i64, align 8
  %10 = alloca ptr, align 8
  %11 = alloca i64, align 8
  %12 = alloca i64, align 8
  %13 = alloca i32, align 4
  store i64 %0, ptr %6, align 8, !tbaa !3
  store i64 %1, ptr %7, align 8, !tbaa !3
  store i64 %2, ptr %8, align 8, !tbaa !3
  store i64 %3, ptr %9, align 8, !tbaa !3
  call void @llvm.lifetime.start.p0(i64 8, ptr %10) #4
  call void @llvm.lifetime.start.p0(i64 8, ptr %11) #4
  call void @llvm.lifetime.start.p0(i64 8, ptr %12) #4
  %14 = load i64, ptr %6, align 8, !tbaa !3
  %15 = icmp sle i64 %14, 0
  br i1 %15, label %16, label %17

16:                                               ; preds = %4
  store ptr null, ptr %5, align 8
  store i32 1, ptr %13, align 4
  br label %107

17:                                               ; preds = %4
  store ptr null, ptr %10, align 8, !tbaa !7
  %18 = call noalias ptr @malloc(i64 noundef 80) #5
  store ptr %18, ptr %10, align 8, !tbaa !7
  %19 = load ptr, ptr %10, align 8, !tbaa !7
  %20 = icmp eq ptr %19, null
  br i1 %20, label %21, label %22

21:                                               ; preds = %17
  store ptr null, ptr %5, align 8
  store i32 1, ptr %13, align 4
  br label %107

22:                                               ; preds = %17
  %23 = load i64, ptr %9, align 8, !tbaa !3
  %24 = load i64, ptr %8, align 8, !tbaa !3
  %25 = add nsw i64 %23, %24
  %26 = add nsw i64 %25, 1
  store i64 %26, ptr %12, align 8, !tbaa !3
  %27 = load ptr, ptr %10, align 8, !tbaa !7
  %28 = getelementptr inbounds nuw %struct._DlsMat, ptr %27, i32 0, i32 7
  store ptr null, ptr %28, align 8, !tbaa !10
  %29 = load i64, ptr %6, align 8, !tbaa !3
  %30 = load i64, ptr %12, align 8, !tbaa !3
  %31 = mul nsw i64 %29, %30
  %32 = mul i64 %31, 8
  %33 = call noalias ptr @malloc(i64 noundef %32) #5
  %34 = load ptr, ptr %10, align 8, !tbaa !7
  %35 = getelementptr inbounds nuw %struct._DlsMat, ptr %34, i32 0, i32 7
  store ptr %33, ptr %35, align 8, !tbaa !10
  %36 = load ptr, ptr %10, align 8, !tbaa !7
  %37 = getelementptr inbounds nuw %struct._DlsMat, ptr %36, i32 0, i32 7
  %38 = load ptr, ptr %37, align 8, !tbaa !10
  %39 = icmp eq ptr %38, null
  br i1 %39, label %40, label %42

40:                                               ; preds = %22
  %41 = load ptr, ptr %10, align 8, !tbaa !7
  call void @free(ptr noundef %41) #4
  store ptr null, ptr %10, align 8, !tbaa !7
  store ptr null, ptr %5, align 8
  store i32 1, ptr %13, align 4
  br label %107

42:                                               ; preds = %22
  %43 = load ptr, ptr %10, align 8, !tbaa !7
  %44 = getelementptr inbounds nuw %struct._DlsMat, ptr %43, i32 0, i32 9
  store ptr null, ptr %44, align 8, !tbaa !15
  %45 = load i64, ptr %6, align 8, !tbaa !3
  %46 = mul i64 %45, 8
  %47 = call noalias ptr @malloc(i64 noundef %46) #5
  %48 = load ptr, ptr %10, align 8, !tbaa !7
  %49 = getelementptr inbounds nuw %struct._DlsMat, ptr %48, i32 0, i32 9
  store ptr %47, ptr %49, align 8, !tbaa !15
  %50 = load ptr, ptr %10, align 8, !tbaa !7
  %51 = getelementptr inbounds nuw %struct._DlsMat, ptr %50, i32 0, i32 9
  %52 = load ptr, ptr %51, align 8, !tbaa !15
  %53 = icmp eq ptr %52, null
  br i1 %53, label %54, label %59

54:                                               ; preds = %42
  %55 = load ptr, ptr %10, align 8, !tbaa !7
  %56 = getelementptr inbounds nuw %struct._DlsMat, ptr %55, i32 0, i32 7
  %57 = load ptr, ptr %56, align 8, !tbaa !10
  call void @free(ptr noundef %57) #4
  %58 = load ptr, ptr %10, align 8, !tbaa !7
  call void @free(ptr noundef %58) #4
  store ptr null, ptr %10, align 8, !tbaa !7
  store ptr null, ptr %5, align 8
  store i32 1, ptr %13, align 4
  br label %107

59:                                               ; preds = %42
  store i64 0, ptr %11, align 8, !tbaa !3
  br label %60

60:                                               ; preds = %77, %59
  %61 = load i64, ptr %11, align 8, !tbaa !3
  %62 = load i64, ptr %6, align 8, !tbaa !3
  %63 = icmp slt i64 %61, %62
  br i1 %63, label %64, label %80

64:                                               ; preds = %60
  %65 = load ptr, ptr %10, align 8, !tbaa !7
  %66 = getelementptr inbounds nuw %struct._DlsMat, ptr %65, i32 0, i32 7
  %67 = load ptr, ptr %66, align 8, !tbaa !10
  %68 = load i64, ptr %11, align 8, !tbaa !3
  %69 = load i64, ptr %12, align 8, !tbaa !3
  %70 = mul nsw i64 %68, %69
  %71 = getelementptr inbounds double, ptr %67, i64 %70
  %72 = load ptr, ptr %10, align 8, !tbaa !7
  %73 = getelementptr inbounds nuw %struct._DlsMat, ptr %72, i32 0, i32 9
  %74 = load ptr, ptr %73, align 8, !tbaa !15
  %75 = load i64, ptr %11, align 8, !tbaa !3
  %76 = getelementptr inbounds ptr, ptr %74, i64 %75
  store ptr %71, ptr %76, align 8, !tbaa !16
  br label %77

77:                                               ; preds = %64
  %78 = load i64, ptr %11, align 8, !tbaa !3
  %79 = add nsw i64 %78, 1
  store i64 %79, ptr %11, align 8, !tbaa !3
  br label %60

80:                                               ; preds = %60
  %81 = load i64, ptr %6, align 8, !tbaa !3
  %82 = load ptr, ptr %10, align 8, !tbaa !7
  %83 = getelementptr inbounds nuw %struct._DlsMat, ptr %82, i32 0, i32 1
  store i64 %81, ptr %83, align 8, !tbaa !17
  %84 = load i64, ptr %6, align 8, !tbaa !3
  %85 = load ptr, ptr %10, align 8, !tbaa !7
  %86 = getelementptr inbounds nuw %struct._DlsMat, ptr %85, i32 0, i32 2
  store i64 %84, ptr %86, align 8, !tbaa !18
  %87 = load i64, ptr %7, align 8, !tbaa !3
  %88 = load ptr, ptr %10, align 8, !tbaa !7
  %89 = getelementptr inbounds nuw %struct._DlsMat, ptr %88, i32 0, i32 4
  store i64 %87, ptr %89, align 8, !tbaa !23
  %90 = load i64, ptr %8, align 8, !tbaa !3
  %91 = load ptr, ptr %10, align 8, !tbaa !7
  %92 = getelementptr inbounds nuw %struct._DlsMat, ptr %91, i32 0, i32 5
  store i64 %90, ptr %92, align 8, !tbaa !24
  %93 = load i64, ptr %9, align 8, !tbaa !3
  %94 = load ptr, ptr %10, align 8, !tbaa !7
  %95 = getelementptr inbounds nuw %struct._DlsMat, ptr %94, i32 0, i32 6
  store i64 %93, ptr %95, align 8, !tbaa !25
  %96 = load i64, ptr %12, align 8, !tbaa !3
  %97 = load ptr, ptr %10, align 8, !tbaa !7
  %98 = getelementptr inbounds nuw %struct._DlsMat, ptr %97, i32 0, i32 3
  store i64 %96, ptr %98, align 8, !tbaa !19
  %99 = load i64, ptr %6, align 8, !tbaa !3
  %100 = load i64, ptr %12, align 8, !tbaa !3
  %101 = mul nsw i64 %99, %100
  %102 = load ptr, ptr %10, align 8, !tbaa !7
  %103 = getelementptr inbounds nuw %struct._DlsMat, ptr %102, i32 0, i32 8
  store i64 %101, ptr %103, align 8, !tbaa !20
  %104 = load ptr, ptr %10, align 8, !tbaa !7
  %105 = getelementptr inbounds nuw %struct._DlsMat, ptr %104, i32 0, i32 0
  store i32 2, ptr %105, align 8, !tbaa !21
  %106 = load ptr, ptr %10, align 8, !tbaa !7
  store ptr %106, ptr %5, align 8
  store i32 1, ptr %13, align 4
  br label %107

107:                                              ; preds = %80, %54, %40, %21, %16
  call void @llvm.lifetime.end.p0(i64 8, ptr %12) #4
  call void @llvm.lifetime.end.p0(i64 8, ptr %11) #4
  call void @llvm.lifetime.end.p0(i64 8, ptr %10) #4
  %108 = load ptr, ptr %5, align 8
  ret ptr %108
}