; Function Attrs: nounwind memory(readwrite, argmem: none) uwtable
define noalias noundef ptr @SUNDlsMat_NewBandMat(i64 noundef %0, i64 noundef %1, i64 noundef %2, i64 noundef %3) local_unnamed_addr #0 {
  %5 = icmp slt i64 %0, 1
  br i1 %5, label %35, label %6

6:                                                ; preds = %4
  %7 = tail call noalias dereferenceable_or_null(80) ptr @malloc(i64 noundef 80) #12
  %8 = icmp eq ptr %7, null
  br i1 %8, label %35, label %9

9:                                                ; preds = %6
  %10 = add i64 %2, 1
  %11 = add i64 %10, %3
  %12 = getelementptr inbounds nuw i8, ptr %7, i64 56
  %13 = mul nsw i64 %11, %0
  %14 = shl i64 %13, 3
  %15 = tail call noalias ptr @malloc(i64 noundef %14) #12
  store ptr %15, ptr %12, align 8, !tbaa !3
  %16 = icmp eq ptr %15, null
  br i1 %16, label %17, label %18

17:                                               ; preds = %9
  tail call void @free(ptr noundef nonnull %7) #13
  br label %35

18:                                               ; preds = %9
  %19 = getelementptr inbounds nuw i8, ptr %7, i64 72
  %20 = shl i64 %0, 3
  %21 = tail call noalias ptr @malloc(i64 noundef %20) #12
  store ptr %21, ptr %19, align 8, !tbaa !12
  %22 = icmp eq ptr %21, null
  br i1 %22, label %23, label %.lr.ph

23:                                               ; preds = %18
  tail call void @free(ptr noundef nonnull %15) #13
  tail call void @free(ptr noundef nonnull %7) #13
  br label %35

.lr.ph:                                           ; preds = %18, %.lr.ph
  %.04144 = phi i64 [ %27, %.lr.ph ], [ 0, %18 ]
  %24 = mul nsw i64 %.04144, %11
  %25 = getelementptr inbounds double, ptr %15, i64 %24
  %26 = getelementptr inbounds nuw ptr, ptr %21, i64 %.04144
  store ptr %25, ptr %26, align 8, !tbaa !13
  %27 = add nuw nsw i64 %.04144, 1
  %exitcond.not = icmp eq i64 %27, %0
  br i1 %exitcond.not, label %._crit_edge, label %.lr.ph

._crit_edge:                                      ; preds = %.lr.ph
  %28 = getelementptr inbounds nuw i8, ptr %7, i64 8
  store i64 %0, ptr %28, align 8, !tbaa !14
  %29 = getelementptr inbounds nuw i8, ptr %7, i64 16
  store i64 %0, ptr %29, align 8, !tbaa !15
  %30 = getelementptr inbounds nuw i8, ptr %7, i64 32
  store i64 %1, ptr %30, align 8, !tbaa !19
  %31 = getelementptr inbounds nuw i8, ptr %7, i64 40
  store i64 %2, ptr %31, align 8, !tbaa !20
  %32 = getelementptr inbounds nuw i8, ptr %7, i64 48
  store i64 %3, ptr %32, align 8, !tbaa !21
  %33 = getelementptr inbounds nuw i8, ptr %7, i64 24
  store i64 %11, ptr %33, align 8, !tbaa !16
  %34 = getelementptr inbounds nuw i8, ptr %7, i64 64
  store i64 %13, ptr %34, align 8, !tbaa !17
  store i32 2, ptr %7, align 8, !tbaa !18
  br label %35

35:                                               ; preds = %6, %4, %._crit_edge, %23, %17
  %.0 = phi ptr [ null, %17 ], [ null, %23 ], [ %7, %._crit_edge ], [ null, %4 ], [ null, %6 ]
  ret ptr %.0
}